; Function Attrs: nounwind uwtable
define ptr @l_Lean_Compiler_LCNF_Decl_pullLetDecls(ptr noundef %0, ptr noundef %1, ptr noundef %2, ptr noundef %3, ptr noundef %4, ptr noundef %5, ptr noundef %6) local_unnamed_addr #0 {
  %8 = getelementptr inbounds nuw i8, ptr %0, i64 32
  %9 = load ptr, ptr %8, align 8, !tbaa !9
  %10 = ptrtoint ptr %9 to i64
  %11 = and i64 %10, 1
  %.not = icmp eq i64 %11, 0
  br i1 %.not, label %12, label %lean_inc.exit30

12:                                               ; preds = %7
  %.val.i = load i32, ptr %9, align 4, !tbaa !4
  %13 = icmp sgt i32 %.val.i, 0
  br i1 %13, label %14, label %16, !prof !11

14:                                               ; preds = %12
  %15 = add nuw i32 %.val.i, 1
  store i32 %15, ptr %9, align 4, !tbaa !4
  br label %lean_inc.exit30

16:                                               ; preds = %12
  %.not.i = icmp eq i32 %.val.i, 0
  br i1 %.not.i, label %lean_inc.exit30, label %17

17:                                               ; preds = %16
  tail call void @lean_inc_ref_cold(ptr noundef nonnull %9) #4
  br label %lean_inc.exit30

lean_inc.exit30:                                  ; preds = %17, %16, %14, %7
  %18 = getelementptr inbounds nuw i8, ptr %0, i64 40
  %19 = load ptr, ptr %18, align 8, !tbaa !9
  %20 = ptrtoint ptr %19 to i64
  %21 = and i64 %20, 1
  %.not40 = icmp eq i64 %21, 0
  br i1 %.not40, label %22, label %lean_inc.exit29

22:                                               ; preds = %lean_inc.exit30
  %.val.i31 = load i32, ptr %19, align 4, !tbaa !4
  %23 = icmp sgt i32 %.val.i31, 0
  br i1 %23, label %24, label %26, !prof !11

24:                                               ; preds = %22
  %25 = add nuw i32 %.val.i31, 1
  store i32 %25, ptr %19, align 4, !tbaa !4
  br label %lean_inc.exit29

26:                                               ; preds = %22
  %.not.i32 = icmp eq i32 %.val.i31, 0
  br i1 %.not.i32, label %lean_inc.exit29, label %27

27:                                               ; preds = %26
  tail call void @lean_inc_ref_cold(ptr noundef nonnull %19) #4
  br label %lean_inc.exit29

lean_inc.exit29:                                  ; preds = %27, %26, %24, %lean_inc.exit30
  %28 = load ptr, ptr @l_Lean_Compiler_LCNF_Decl_pullLetDecls___closed__1, align 8, !tbaa !9
  tail call void @lean_inc_heartbeat() #4
  %29 = tail call noalias ptr @mi_malloc_small(i64 noundef 40) #4
  %30 = icmp eq ptr %29, null
  br i1 %30, label %31, label %lean_alloc_closure.exit

31:                                               ; preds = %lean_inc.exit29
  tail call void @lean_internal_panic_out_of_memory() #5
  unreachable

lean_alloc_closure.exit:                          ; preds = %lean_inc.exit29
  %32 = getelementptr inbounds nuw i8, ptr %29, i64 4
  store i32 1, ptr %29, align 4, !tbaa !4
  store i32 -184549336, ptr %32, align 4
  %33 = getelementptr inbounds nuw i8, ptr %29, i64 8
  store ptr @l_Lean_Compiler_LCNF_DeclValue_mapCodeM___at_Lean_Compiler_LCNF_Decl_pullLetDecls___spec__1, ptr %33, align 8, !tbaa !9
  %34 = getelementptr inbounds nuw i8, ptr %29, i64 16
  store i16 9, ptr %34, align 8, !tbaa !14
  %35 = getelementptr inbounds nuw i8, ptr %29, i64 18
  store i16 2, ptr %35, align 2, !tbaa !14
  %36 = getelementptr inbounds nuw i8, ptr %29, i64 24
  store ptr %28, ptr %36, align 8, !tbaa !9
  %37 = getelementptr inbounds nuw i8, ptr %29, i64 32
  store ptr %19, ptr %37, align 8, !tbaa !9
  br i1 %.not, label %38, label %lean_inc.exit

38:                                               ; preds = %lean_alloc_closure.exit
  %.val.i34 = load i32, ptr %9, align 4, !tbaa !4
  %39 = icmp sgt i32 %.val.i34, 0
  br i1 %39, label %40, label %42, !prof !11

40:                                               ; preds = %38
  %41 = add nuw i32 %.val.i34, 1
  store i32 %41, ptr %9, align 4, !tbaa !4
  br label %lean_inc.exit

42:                                               ; preds = %38
  %.not.i35 = icmp eq i32 %.val.i34, 0
  br i1 %.not.i35, label %lean_inc.exit, label %43

43:                                               ; preds = %42
  tail call void @lean_inc_ref_cold(ptr noundef nonnull %9) #4
  br label %lean_inc.exit

lean_inc.exit:                                    ; preds = %43, %42, %40, %lean_alloc_closure.exit
  tail call void @lean_inc_heartbeat() #4
  %44 = tail call noalias ptr @mi_malloc_small(i64 noundef 40) #4
  %45 = icmp eq ptr %44, null
  br i1 %45, label %46, label %lean_alloc_closure.exit37

46:                                               ; preds = %lean_inc.exit
  tail call void @lean_internal_panic_out_of_memory() #5
  unreachable

lean_alloc_closure.exit37:                        ; preds = %lean_inc.exit
  %47 = getelementptr inbounds nuw i8, ptr %44, i64 4
  store i32 1, ptr %44, align 4, !tbaa !4
  store i32 -184549336, ptr %47, align 4
  %48 = getelementptr inbounds nuw i8, ptr %44, i64 8
  store ptr @l_Lean_Compiler_LCNF_Decl_pullLetDecls___lambda__1___boxed, ptr %48, align 8, !tbaa !9
  %49 = getelementptr inbounds nuw i8, ptr %44, i64 16
  store i16 10, ptr %49, align 8, !tbaa !14
  %50 = getelementptr inbounds nuw i8, ptr %44, i64 18
  store i16 2, ptr %50, align 2, !tbaa !14
  %51 = getelementptr inbounds nuw i8, ptr %44, i64 24
  store ptr %0, ptr %51, align 8, !tbaa !9
  %52 = getelementptr inbounds nuw i8, ptr %44, i64 32
  store ptr %9, ptr %52, align 8, !tbaa !9
  tail call void @lean_inc_heartbeat() #4
  %53 = tail call noalias ptr @mi_malloc_small(i64 noundef 40) #4
  %54 = icmp eq ptr %53, null
  br i1 %54, label %55, label %lean_alloc_closure.exit38

55:                                               ; preds = %lean_alloc_closure.exit37
  tail call void @lean_internal_panic_out_of_memory() #5
  unreachable

lean_alloc_closure.exit38:                        ; preds = %lean_alloc_closure.exit37
  %56 = getelementptr inbounds nuw i8, ptr %53, i64 4
  store i32 1, ptr %53, align 4, !tbaa !4
  store i32 -184549336, ptr %56, align 4
  %57 = getelementptr inbounds nuw i8, ptr %53, i64 8
  store ptr @l_ReaderT_bind___at_Lean_Compiler_LCNF_PullLetDecls_pullDecls___spec__1___rarg, ptr %57, align 8, !tbaa !9
  %58 = getelementptr inbounds nuw i8, ptr %53, i64 16
  store i16 9, ptr %58, align 8, !tbaa !14
  %59 = getelementptr inbounds nuw i8, ptr %53, i64 18
  store i16 2, ptr %59, align 2, !tbaa !14
  %60 = getelementptr inbounds nuw i8, ptr %53, i64 24
  store ptr %29, ptr %60, align 8, !tbaa !9
  %61 = getelementptr inbounds nuw i8, ptr %53, i64 32
  store ptr %44, ptr %61, align 8, !tbaa !9
  tail call void @lean_inc_heartbeat() #4
  %62 = tail call noalias ptr @mi_malloc_small(i64 noundef 40) #4
  %63 = icmp eq ptr %62, null
  br i1 %63, label %64, label %lean_alloc_closure.exit39

64:                                               ; preds = %lean_alloc_closure.exit38
  tail call void @lean_internal_panic_out_of_memory() #5
  unreachable

lean_alloc_closure.exit39:                        ; preds = %lean_alloc_closure.exit38
  %65 = getelementptr inbounds nuw i8, ptr %62, i64 4
  store i32 1, ptr %62, align 4, !tbaa !4
  store i32 -184549336, ptr %65, align 4
  %66 = getelementptr inbounds nuw i8, ptr %62, i64 8
  store ptr @l_Lean_Compiler_LCNF_PullLetDecls_withParams___rarg___boxed, ptr %66, align 8, !tbaa !9
  %67 = getelementptr inbounds nuw i8, ptr %62, i64 16
  store i16 9, ptr %67, align 8, !tbaa !14
  %68 = getelementptr inbounds nuw i8, ptr %62, i64 18
  store i16 2, ptr %68, align 2, !tbaa !14
  %69 = getelementptr inbounds nuw i8, ptr %62, i64 24
  store ptr %9, ptr %69, align 8, !tbaa !9
  %70 = getelementptr inbounds nuw i8, ptr %62, i64 32
  store ptr %53, ptr %70, align 8, !tbaa !9
  %71 = tail call ptr @l_Lean_Compiler_LCNF_PullLetDecls_PullM_run___rarg(ptr noundef nonnull %62, ptr noundef %1, ptr noundef %2, ptr noundef %3, ptr noundef %4, ptr noundef %5, ptr noundef %6)
  ret ptr %71
}